Edition   equ 15
Revision  equ 1

Type_Lang set (DevDrv<<8)!Objct
Attr_Rev  set (ReEnt+SupSta<<8)!Revision

 psect <file>,Type_Lang,Attr_Rev,Edition,0,<start>
  dc.w  004a    init
  dc.w  02fe    read
  dc.w  028a    write
  dc.w  039e    getstat
  dc.w  03d0    setstat
  dc.w  02c4    terminate
  dc.w  0000    error
0000004a 266a0000      movea.l    0(a2),a3
0000004e 200b          move.l     a3,d0
00000050 020000e0      andi.b     #$e0,d0
00000054 2040          movea.l    d0,a0
00000056 117c00c0      move.b     #$c0,18(a0)
         0012
0000005c 4280          clr.l      d0
0000005e 41ee07c4      lea        1988(a6),a0
00000062 25480054      move.l     a0,84(a2)
00000066 3029003c      move.w     60(a1),d0
0000006a 670c          beq.s      $78
0000006c 30310000      move.w     0(a1,d0.w),d0
00000070 2208          move.l     a0,d1
00000072 d280          add.l      d0,d1
00000074 25410054      move.l     d1,84(a2)
00000078 157c0000      move.b     #$0,132(a2)
         0084
0000007e b7fc0034      cmpa.l     #$34,a3
00000082 0000          dc.w       $0
00000084 0000          bne.s      $8e
00000086 206a0054      movea.l    84(a2),a0
0000008a 08d00003      bset       #$3,(a0)
0000008e 426a0074      clr.w      116(a2)
00000092 426a0076      clr.w      118(a2)
00000096 422a0086      clr.b      134(a2)
0000009a 422a0087      clr.b      135(a2)
0000009e 422a0085      clr.b      133(a2)
000000a2 41ea0088      lea        136(a2),a0
000000a6 25480058      move.l     a0,88(a2)
000000aa 2548005c      move.l     a0,92(a2)
000000ae 41e80400      lea        1024(a0),a0
000000b2 25480060      move.l     a0,96(a2)
000000b6 41ea0488      lea        1160(a2),a0
000000ba 25480064      move.l     a0,100(a2)
000000be 25480068      move.l     a0,104(a2)
000000c2 41e80100      lea        256(a0),a0
000000c6 2548006c      move.l     a0,108(a2)
000000ca 61000106      bsr        $1d2
000000ce 157c0080      move.b     #$80,1416(a2)
         0588
000000d4 6704          beq.s      $da
000000d6 50ea0589      st         1417(a2)
000000da 157c0010      move.b     #$10,1418(a2)
         058a
000000e0 1029005d      move.b     93(a1),d0
000000e4 61000124      bsr        $20a
000000e8 655c          bcs.s      $146
000000ea 1029005c      move.b     92(a1),d0
000000ee 6170          bsr.s      $160
000000f0 6554          bcs.s      $146
000000f2 177c0005      move.b     #$5,2(a3)
         0002
000000f8 266a0000      movea.l    0(a2),a3
000000fc 10290034      move.b     52(a1),d0
00000100 12290036      move.b     54(a1),d1
00000104 41fa04e4      lea        1252(pc),a0
00000108 082a0003      btst       #$3,3(a2)
         0003
0000010e 6704          beq.s      $114
00000110 41fa04bc      lea        1212(pc),a0
00000114 4e40002a      os9        F$IRQ
00000118 652c          bcs.s      $146
0000011a 10290035      move.b     53(a1),d0
0000011e e140          asl.w      #8,d0
00000120 08c0000d      bset       #$d,d0
00000124 35400078      move.w     d0,120(a2)
00000128 266a0000      movea.l    0(a2),a3
0000012c 61000388      bsr        $4b6
00000130 61000414      bsr        $546
00000134 206a0054      movea.l    84(a2),a0
00000138 200b          move.l     a3,d0
0000013a 020000f0      andi.b     #$f0,d0
0000013e 2640          movea.l    d0,a3
00000140 17500005      move.b     (a0),5(a3)
00000144 7200          moveq      #0,d1
00000146 4e75          rts       
00000148 1004          move.b     d4,d0
0000014a 1000          move.b     d0,d0
0000014c 0302          btst       d1,d2
0000014e 0100          btst       d0,d0
00000150 0707          btst       d3,d7
00000152 0fff          dc.w       $fff
00000154 610a          bsr.s      $160
00000156 6506          bcs.s      $15e
00000158 177c0005      move.b     #$5,2(a3)
         0002
0000015e 4e75          rts       
00000160 266a0000      movea.l    0(a2),a3
00000164 7400          moveq      #0,d2
00000166 024000ff      andi.w     #$ff,d0
0000016a 3200          move.w     d0,d1
0000016c 02410003      andi.w     #$3,d1
00000170 41faffd6      lea        -42(pc),a0
00000174 14301000      move.b     0(a0,d1.w),d2
00000178 3200          move.w     d0,d1
0000017a e449          lsr.w      #2,d1
0000017c 02410003      andi.w     #$3,d1
00000180 41faffca      lea        -54(pc),a0
00000184 84301000      or.b       0(a0,d1.w),d2
00000188 3200          move.w     d0,d1
0000018a e849          lsr.w      #4,d1
0000018c 02410003      andi.w     #$3,d1
00000190 41faffbe      lea        -66(pc),a0
00000194 12301000      move.b     0(a0,d1.w),d1
00000198 6b0000ae      bmi        $248
0000019c 177c000a      move.b     #$a,2(a3)
         0002
000001a2 c141          exg        d0,d1
000001a4 c141          exg        d0,d1
000001a6 177c0010      move.b     #$10,2(a3)
         0002
000001ac c141          exg        d0,d1
000001ae c141          exg        d0,d1
000001b0 842a0588      or.b       1416(a2),d2
000001b4 17420000      move.b     d2,0(a3)
000001b8 15400082      move.b     d0,130(a2)
000001bc 822a058a      or.b       1418(a2),d1
000001c0 17410000      move.b     d1,0(a3)
000001c4 4a2a0589      tst.b      1417(a2)
000001c8 6704          beq.s      $1ce
000001ca 6100028e      bsr        $45a
000001ce 7200          moveq      #0,d1
000001d0 4e75          rts       
000001d2 202a0000      move.l     0(a2),d0
000001d6 020000e0      andi.b     #$e0,d0
000001da 2040          movea.l    d0,a0
000001dc 1028000d      move.b     13(a0),d0
000001e0 1228001d      move.b     29(a0),d1
000001e4 e848          lsr.w      #4,d0
000001e6 0240000f      andi.w     #$f,d0
000001ea 08010001      btst       #$1,d1
000001ee 6704          beq.s      $1f4
000001f0 08c00009      bset       #$9,d0
000001f4 e341          asl.w      #1,d1
000001f6 024101f0      andi.w     #$1f0,d1
000001fa 8041          or.w       d1,d0
000001fc 35400080      move.w     d0,128(a2)
00000200 33c00000      move.w     d0,$402
         0402
00000206 7200          moveq      #0,d1
00000208 4e75          rts       
0000020a 266a0000      movea.l    0(a2),a3
0000020e 024000ff      andi.w     #$ff,d0
00000212 0c400034      cmpi.w     #$34,d0
00000216 6c30          bge.s      $248
00000218 3200          move.w     d0,d1
0000021a e341          asl.w      #1,d1
0000021c 41fa0034      lea        52(pc),a0
00000220 32301000      move.w     0(a0,d1.w),d1
00000224 0c010001      cmpi.b     #$1,d1
00000228 671e          beq.s      $248
0000022a 17410002      move.b     d1,2(a3)
0000022e c141          exg        d0,d1
00000230 c141          exg        d0,d1
00000232 00010020      ori.b      #$20,d1
00000236 17410002      move.b     d1,2(a3)
0000023a e059          roxr.w     #8,d1
0000023c 17410001      move.b     d1,1(a3)
00000240 15400083      move.b     d0,131(a2)
00000244 7200          moveq      #0,d1
00000246 4e75          rts       
00000248 323c00cb      move.w     #$cb,d1
0000024c 003c0001      ori        #$1,ccr
00000250 4e75          rts       
00000252 00900080      ori.l      #$801190,(a0)
         1190
00000258 2290          move.l     (a0),(a1)
0000025a 33804490      move.w     d0,144(a1,d4.w)
0000025e 5590          subq.l     #2,(a0)
00000260 6690          bne.s      $1f2
00000262 aa80          Line 1010 
00000264 0001          dc.w       $1
00000266 0001          or.l       (a0),d4
00000268 4480          neg.l      d0
0000026a 9990          sub.l      d4,(a0)
0000026c aa90          Line 1010 
0000026e bb90          eor.l      d5,(a0)
00000270 cc01          abcd       d1,d6
00000272 cc90          and.l      (a0),d6
00000274 dd90          add.l      d6,(a0)
00000276 ee90          ror.l      #7,d0
00000278 ff90          Line 1111 
0000027a 33907790      move.w     (a0),Full format ext not supported yet
0000027e 5580          subq.l     #2,d0
00000280 6680          bne.s      $202
00000282 7780          moveq      #128,d3
00000284 8880          or.l       d0,d4
00000286 610000d0      bsr        $358
0000028a 0c6a0100      cmpi.w     #$100,118(a2)
         0076
00000290 64f4          bcc.s      $286
00000292 206a0068      movea.l    104(a2),a0
00000296 10c0          move.b     d0,(a0)+
00000298 b1ea006c      cmpa.l     108(a2),a0
0000029c 6604          bne.s      $2a2
0000029e 41ea0488      lea        1160(a2),a0
000002a2 25480068      move.l     a0,104(a2)
000002a6 526a0076      addq.w     #1,118(a2)
000002aa 0c6a0001      cmpi.w     #$1,118(a2)
         0076
000002b0 6204          bhi.s      $2b6
000002b2 61000262      bsr        $516
000002b6 7200          moveq      #0,d1
000002b8 4e75          rts       
000002ba 487a0008      pea        8(pc)
000002be 61000098      bsr        $358
000002c2 588f          addq.l     #4,a7
000002c4 302c0000      move.w     0(a4),d0
000002c8 35400006      move.w     d0,6(a2)
000002cc 35400004      move.w     d0,4(a2)
000002d0 4a6a0076      tst.w      118(a2)
000002d4 66e4          bne.s      $2ba
000002d6 4a2a0589      tst.b      1417(a2)
000002da 6704          beq.s      $2e0
000002dc 610001be      bsr        $49c
000002e0 266a0000      movea.l    0(a2),a3
000002e4 61000260      bsr        $546
000002e8 610001fc      bsr        $4e6
000002ec 10290034      move.b     52(a1),d0
000002f0 91c8          suba.l     a0,a0
000002f2 4e40002a      os9        F$IRQ
000002f6 7200          moveq      #0,d1
000002f8 4e75          rts       
000002fa 6100005c      bsr        $358
000002fe 4a6a0074      tst.w      116(a2)
00000302 67f6          beq.s      $2fa
00000304 206a0058      movea.l    88(a2),a0
00000308 1018          move.b     (a0)+,d0
0000030a b1ea0060      cmpa.l     96(a2),a0
0000030e 6604          bne.s      $314
00000310 41ea0088      lea        136(a2),a0
00000314 25480058      move.l     a0,88(a2)
00000318 536a0074      subq.w     #1,116(a2)
0000031c 0c6a0066      cmpi.w     #$66,116(a2)
         0074
00000322 621e          bhi.s      $342
00000324 4a2a0085      tst.b      133(a2)
00000328 6618          bne.s      $342
0000032a 4a2a0086      tst.b      134(a2)
0000032e 6712          beq.s      $342
00000330 156a0039      move.b     57(a2),134(a2)
         0086
00000336 670a          beq.s      $342
00000338 08ea0000      bset       #$0,133(a2)
         0085
0000033e 610001d6      bsr        $516
00000342 136a0038      move.b     56(a2),162(a1)
         00a2
00000348 670c          beq.s      $356
0000034a 422a0038      clr.b      56(a2)
0000034e 323c00f4      move.w     #$f4,d1
00000352 003c0001      ori        #$1,ccr
00000356 4e75          rts       
00000358 2f00          move.l     d0,-(a7)
0000035a 356a0006      move.w     6(a2),8(a2)
         0008
00000360 7000          moveq      #0,d0
00000362 2f0b          move.l     a3,-(a7)
00000364 266e03a4      movea.l    932(a6),a3
00000368 487a000c      pea        12(pc)
0000036c 2f2b0028      move.l     40(a3),-(a7)
00000370 266b0428      movea.l    1064(a3),a3
00000374 4e75          rts       
00000376 265f          movea.l    (a7)+,a3
00000378 322c0026      move.w     38(a4),d1
0000037c 6706          beq.s      $384
0000037e 0c410003      cmpi.w     #$3,d1
00000382 630c          bls.s      $390
00000384 082c0001      btst       #$1,28(a4)
         001c
0000038a 6604          bne.s      $390
0000038c 201f          move.l     (a7)+,d0
0000038e 4e75          rts       
00000390 508f          addq.l     #8,a7
00000392 003c0001      ori        #$1,ccr
00000396 4e75          rts       
00000398 323c00f6      move.w     #$f6,d1
0000039c 60f4          bra.s      $392
0000039e 0c400001      cmpi.w     #$1,d0
000003a2 660e          bne.s      $3b2
000003a4 426d0004      clr.w      4(a5)
000003a8 3b6a0074      move.w     116(a2),6(a5)
         0006
000003ae 67e8          beq.s      $398
000003b0 601a          bra.s      $3cc
000003b2 0c400006      cmpi.w     #$6,d0
000003b6 6714          beq.s      $3cc
000003b8 0c400000      cmpi.w     #$0,d0
000003bc 660000e8      bne        $4a6
000003c0 136a0083      move.b     131(a2),149(a1)
         0095
000003c6 136a0082      move.b     130(a2),148(a1)
         0094
000003cc 7200          moveq      #0,d1
000003ce 4e75          rts       
000003d0 0c400000      cmpi.w     #$0,d0
000003d4 6620          bne.s      $3f6
000003d6 10290095      move.b     149(a1),d0
000003da b02a0083      cmp.b      131(a2),d0
000003de 6706          beq.s      $3e6
000003e0 6100fe28      bsr        $20a
000003e4 650e          bcs.s      $3f4
000003e6 10290094      move.b     148(a1),d0
000003ea b02a0082      cmp.b      130(a2),d0
000003ee 67dc          beq.s      $3cc
000003f0 6100fd62      bsr        $154
000003f4 4e75          rts       
000003f6 0c40001a      cmpi.w     #$1a,d0
000003fa 662e          bne.s      $42a
000003fc 4a6a007a      tst.w      122(a2)
00000400 6696          bne.s      $398
00000402 30290008      move.w     8(a1),d0
00000406 322d000a      move.w     10(a5),d1
0000040a 40e7          move       sr,-(a7)
0000040c 46ea0078      move       120(a2),sr
00000410 4a6a0074      tst.w      116(a2)
00000414 660e          bne.s      $424
00000416 34290000      move.w     0(a1),d2
0000041a 48aa0007      movem.w    d0-d2,122(a2)
         007a
00000420 46df          move       (a7)+,sr
00000422 60a8          bra.s      $3cc
00000424 46df          move       (a7)+,sr
00000426 600002ca      bra        $6f2
0000042a 0c40001b      cmpi.w     #$1b,d0
0000042e 661c          bne.s      $44c
00000430 30290008      move.w     8(a1),d0
00000434 34290000      move.w     0(a1),d2
00000438 47ea007a      lea        122(a2),a3
0000043c b053          cmp.w      (a3),d0
0000043e 6608          bne.s      $448
00000440 b46b0004      cmp.w      4(a3),d2
00000444 6602          bne.s      $448
00000446 4253          clr.w      (a3)
00000448 7200          moveq      #0,d1
0000044a 4e75          rts       
0000044c 0c40002a      cmpi.w     #$2a,d0
00000450 6700ff84      beq        $3d6
00000454 0c400024      cmpi.w     #$24,d0
00000458 663c          bne.s      $496
0000045a 303c000e      move.w     #$e,d0
0000045e 50ea0589      st         1417(a2)
00000462 242a0000      move.l     0(a2),d2
00000466 020200e0      andi.b     #$e0,d2
0000046a 2642          movea.l    d2,a3
0000046c 343c0000      move.w     #$0,d2
00000470 082a0003      btst       #$3,3(a2)
         0003
00000476 6704          beq.s      $47c
00000478 343c0001      move.w     #$1,d2
0000047c 082a0004      btst       #$4,3(a2)
         0003
00000482 670a          beq.s      $48e
00000484 06400010      addi.w     #$10,d0
00000488 17820000      move.b     d2,0(a3,d0.w)
0000048c 6004          bra.s      $492
0000048e 17820000      move.b     d2,0(a3,d0.w)
00000492 7200          moveq      #0,d1
00000494 4e75          rts       
00000496 0c400025      cmpi.w     #$25,d0
0000049a 660a          bne.s      $4a6
0000049c 303c000f      move.w     #$f,d0
000004a0 51ea0589      sf         1417(a2)
000004a4 60bc          bra.s      $462
000004a6 33c00000      move.w     d0,$400
         0400
000004ac 323c00d0      move.w     #$d0,d1
000004b0 003c0001      ori        #$1,ccr
000004b4 4e75          rts       
000004b6 266a0000      movea.l    0(a2),a3
000004ba 206a0054      movea.l    84(a2),a0
000004be 082a0003      btst       #$3,3(a2)
         0003
000004c4 6710          beq.s      $4d6
000004c6 08ea0005      bset       #$5,132(a2)
         0084
000004cc 08d00005      bset       #$5,(a0)
000004d0 1750fffd      move.b     (a0),-3(a3)
000004d4 4e75          rts       
000004d6 08ea0001      bset       #$1,132(a2)
         0084
000004dc 08d00001      bset       #$1,(a0)
000004e0 17500005      move.b     (a0),5(a3)
000004e4 4e75          rts       
000004e6 266a0000      movea.l    0(a2),a3
000004ea 206a0054      movea.l    84(a2),a0
000004ee 082a0003      btst       #$3,3(a2)
         0003
000004f4 6710          beq.s      $506
000004f6 08aa0005      bclr       #$5,132(a2)
         0084
000004fc 08900005      bclr       #$5,(a0)
00000500 1750fffd      move.b     (a0),-3(a3)
00000504 4e75          rts       
00000506 08aa0001      bclr       #$1,132(a2)
         0084
0000050c 08900001      bclr       #$1,(a0)
00000510 17500005      move.b     (a0),5(a3)
00000514 4e75          rts       
00000516 266a0000      movea.l    0(a2),a3
0000051a 206a0054      movea.l    84(a2),a0
0000051e 082a0003      btst       #$3,3(a2)
         0003
00000524 6710          beq.s      $536
00000526 08d00004      bset       #$4,(a0)
0000052a 08ea0004      bset       #$4,132(a2)
         0084
00000530 1750fffd      move.b     (a0),-3(a3)
00000534 4e75          rts       
00000536 08d00000      bset       #$0,(a0)
0000053a 08ea0000      bset       #$0,132(a2)
         0084
00000540 17500005      move.b     (a0),5(a3)
00000544 4e75          rts       
00000546 266a0000      movea.l    0(a2),a3
0000054a 206a0054      movea.l    84(a2),a0
0000054e 082a0003      btst       #$3,3(a2)
         0003
00000554 6710          beq.s      $566
00000556 08900004      bclr       #$4,(a0)
0000055a 1750fffd      move.b     (a0),-3(a3)
0000055e 08aa0004      bclr       #$4,132(a2)
         0084
00000564 4e75          rts       
00000566 08900000      bclr       #$0,(a0)
0000056a 17500005      move.b     (a0),5(a3)
0000056e 08aa0000      bclr       #$0,132(a2)
         0084
00000574 4e75          rts       
00000576 4a2a0085      tst.b      133(a2)
0000057a 6718          beq.s      $594
0000057c 102a0086      move.b     134(a2),d0
00000580 17400003      move.b     d0,3(a3)
00000584 b02a0039      cmp.b      57(a2),d0
00000588 6604          bne.s      $58e
0000058a 422a0086      clr.b      134(a2)
0000058e 422a0085      clr.b      133(a2)
00000592 4e75          rts       
00000594 4a2a0087      tst.b      135(a2)
00000598 6706          beq.s      $5a0
0000059a 61aa          bsr.s      $546
0000059c 7200          moveq      #0,d1
0000059e 4e75          rts       
000005a0 4a6a0076      tst.w      118(a2)
000005a4 67f4          beq.s      $59a
000005a6 206a0064      movea.l    100(a2),a0
000005aa 17580003      move.b     (a0)+,3(a3)
000005ae b1ea006c      cmpa.l     108(a2),a0
000005b2 6604          bne.s      $5b8
000005b4 41ea0488      lea        1160(a2),a0
000005b8 25480064      move.l     a0,100(a2)
000005bc 536a0076      subq.w     #1,118(a2)
000005c0 0c6a0019      cmpi.w     #$19,118(a2)
         0076
000005c6 6500011e      bcs        $6e6
000005ca 7200          moveq      #0,d1
000005cc 4e75          rts       
000005ce 102bfffd      move.b     -3(a3),d0
000005d2 c02a0084      and.b      132(a2),d0
000005d6 670c          beq.s      $5e4
000005d8 08000005      btst       #$5,d0
000005dc 662a          bne.s      $608
000005de 08000004      btst       #$4,d0
000005e2 6692          bne.s      $576
000005e4 003c0001      ori        #$1,ccr
000005e8 4e75          rts       
000005ea 102b0005      move.b     5(a3),d0
000005ee c02a0084      and.b      132(a2),d0
000005f2 670e          beq.s      $602
000005f4 08000001      btst       #$1,d0
000005f8 660e          bne.s      $608
000005fa 08000000      btst       #$0,d0
000005fe 6600ff76      bne        $576
00000602 003c0001      ori        #$1,ccr
00000606 4e75          rts       
00000608 122b0001      move.b     1(a3),d1
0000060c 02010070      andi.b     #$70,d1
00000610 6718          beq.s      $62a
00000612 0c010020      cmpi.b     #$20,d1
00000616 6608          bne.s      $620
00000618 082a0007      btst       #$7,130(a2)
         0082
0000061e 6604          bne.s      $624
00000620 832a0038      or.b       d1,56(a2)
00000624 177c0040      move.b     #$40,2(a3)
         0002
0000062a 102b0003      move.b     3(a3),d0
0000062e 6754          beq.s      $684
00000630 b02a0035      cmp.b      53(a2),d0
00000634 6728          beq.s      $65e
00000636 b02a0036      cmp.b      54(a2),d0
0000063a 6726          beq.s      $662
0000063c b02a0039      cmp.b      57(a2),d0
00000640 6710          beq.s      $652
00000642 b02a003a      cmp.b      58(a2),d0
00000646 663c          bne.s      $684
00000648 15400087      move.b     d0,135(a2)
0000064c 003c0001      ori        #$1,ccr
00000650 4e75          rts       
00000652 422a0087      clr.b      135(a2)
00000656 6100febe      bsr        $516
0000065a 6000008a      bra        $6e6
0000065e 7203          moveq      #3,d1
00000660 6002          bra.s      $664
00000662 7202          moveq      #2,d1
00000664 1f00          move.b     d0,-(a7)
00000666 302a0004      move.w     4(a2),d0
0000066a 6716          beq.s      $682
0000066c 2f0b          move.l     a3,-(a7)
0000066e 266e03a4      movea.l    932(a6),a3
00000672 487a000c      pea        12(pc)
00000676 2f2b0020      move.l     32(a3),-(a7)
0000067a 266b0420      movea.l    1056(a3),a3
0000067e 4e75          rts       
00000680 265f          movea.l    (a7)+,a3
00000682 101f          move.b     (a7)+,d0
00000684 0c6a0400      cmpi.w     #$400,116(a2)
         0074
0000068a 6508          bcs.s      $694
0000068c 002a0010      ori.b      #$10,56(a2)
         0038
00000692 6038          bra.s      $6cc
00000694 206a005c      movea.l    92(a2),a0
00000698 10c0          move.b     d0,(a0)+
0000069a b1ea0060      cmpa.l     96(a2),a0
0000069e 6604          bne.s      $6a4
000006a0 41ea0088      lea        136(a2),a0
000006a4 2548005c      move.l     a0,92(a2)
000006a8 526a0074      addq.w     #1,116(a2)
000006ac 0c6a0399      cmpi.w     #$399,116(a2)
         0074
000006b2 6518          bcs.s      $6cc
000006b4 4a2a0086      tst.b      134(a2)
000006b8 6612          bne.s      $6cc
000006ba 156a003a      move.b     58(a2),134(a2)
         0086
000006c0 670a          beq.s      $6cc
000006c2 08ea0000      bset       #$0,133(a2)
         0085
000006c8 6100fe4c      bsr        $516
000006cc 302a007a      move.w     122(a2),d0
000006d0 670a          beq.s      $6dc
000006d2 322a007c      move.w     124(a2),d1
000006d6 426a007a      clr.w      122(a2)
000006da 6016          bra.s      $6f2
000006dc 082b0000      btst       #$0,1(a3)
         0001
000006e2 6600ff24      bne        $608
000006e6 302a0008      move.w     8(a2),d0
000006ea 671c          beq.s      $708
000006ec 426a0008      clr.w      8(a2)
000006f0 7201          moveq      #1,d1
000006f2 2f0b          move.l     a3,-(a7)
000006f4 266e03a4      movea.l    932(a6),a3
000006f8 487a000c      pea        12(pc)
000006fc 2f2b0020      move.l     32(a3),-(a7)
00000700 266b0420      movea.l    1056(a3),a3
00000704 4e75          rts       
00000706 265f          movea.l    (a7)+,a3
00000708 7200          moveq      #0,d1
0000070a 4e75          rts       
0000070c 6877          bvc.s      $785
0000070e 38326336      move.w     Full format ext not supported yet,d4
00000712 38340000      move.w     0(a4,d0.w),d4
00000716 002a          dc.w       $2a
00000718 002a          and.w      d4,-(a1)
